target datalayout = "e-m:e-p270:32:32-p271:32:32-p272:64:64-i64:64-i128:128-f80:128-n8:16:32:64-S128"
target triple = "x86_64-pc-linux-gnu"

%struct.prov_rc4_hmac_md5_ctx_st = type { %struct.prov_cipher_ctx_st, %union.anon.0, %struct.MD5state_st, %struct.MD5state_st, %struct.MD5state_st, i64, i64 }
%struct.prov_cipher_ctx_st = type { [16 x i8], [16 x i8], [16 x i8], ptr, %union.anon, i32, i64, i64, i64, i64, i32, i8, i32, ptr, i32, i64, i32, i64, i32, ptr, ptr, ptr }
%union.anon = type { ptr }
%union.anon.0 = type { double, [1024 x i8] }
%struct.MD5state_st = type { i32, i32, i32, i32, i32, i32, [16 x i32], i32 }
%struct.ossl_param_st = type { ptr, i32, ptr, i64, i64 }
%struct.prov_cipher_hw_rc4_hmac_md5_st = type { %struct.prov_cipher_hw_st, ptr, ptr }
%struct.prov_cipher_hw_st = type { ptr, ptr, ptr }

@.str = private unnamed_addr constant [67 x i8] c"../openssl/providers/implementations/ciphers/cipher_rc4_hmac_md5.c\00", align 1
@.str.1 = private unnamed_addr constant [7 x i8] c"keylen\00", align 1
@.str.2 = private unnamed_addr constant [6 x i8] c"ivlen\00", align 1
@__func__.rc4_hmac_md5_set_ctx_params = private unnamed_addr constant [28 x i8] c"rc4_hmac_md5_set_ctx_params\00", align 1
@.str.5 = private unnamed_addr constant [7 x i8] c"tlsaad\00", align 1
@.str.6 = private unnamed_addr constant [7 x i8] c"mackey\00", align 1
@.str.7 = private unnamed_addr constant [12 x i8] c"tls-version\00", align 1

; Function Attrs: inlinehint nounwind uwtable
define internal i32 @ossl_param_is_empty(ptr noundef %0) #3 {
  %2 = alloca ptr, align 8
  store ptr %0, ptr %2, align 8, !tbaa !13
  %3 = load ptr, ptr %2, align 8, !tbaa !13
  %4 = icmp eq ptr %3, null
  br i1 %4, label %10, label %5

5:                                                ; preds = %1
  %6 = load ptr, ptr %2, align 8, !tbaa !13
  %7 = getelementptr inbounds nuw %struct.ossl_param_st, ptr %6, i32 0, i32 0
  %8 = load ptr, ptr %7, align 8, !tbaa !33
  %9 = icmp eq ptr %8, null
  br label %10

10:                                               ; preds = %5, %1
  %11 = phi i1 [ true, %1 ], [ %9, %5 ]
  %12 = zext i1 %11 to i32
  ret i32 %12
}

; Function Attrs: nounwind uwtable
define internal i32 @rc4_hmac_md5_set_ctx_params(ptr noundef %0, ptr noundef %1) #0 {
  %3 = alloca i32, align 4
  %4 = alloca ptr, align 8
  %5 = alloca ptr, align 8
  %6 = alloca ptr, align 8
  %7 = alloca ptr, align 8
  %8 = alloca i64, align 8
  %9 = alloca i32, align 4
  store ptr %0, ptr %4, align 8, !tbaa !3
  store ptr %1, ptr %5, align 8, !tbaa !13
  call void @llvm.lifetime.start.p0(i64 8, ptr %6) #4
  %10 = load ptr, ptr %4, align 8, !tbaa !3
  store ptr %10, ptr %6, align 8, !tbaa !7
  call void @llvm.lifetime.start.p0(i64 8, ptr %7) #4
  call void @llvm.lifetime.start.p0(i64 8, ptr %8) #4
  %11 = load ptr, ptr %5, align 8, !tbaa !13
  %12 = call i32 @ossl_param_is_empty(ptr noundef %11)
  %13 = icmp ne i32 %12, 0
  br i1 %13, label %14, label %15

14:                                               ; preds = %2
  store i32 1, ptr %3, align 4
  store i32 1, ptr %9, align 4
  br label %129

15:                                               ; preds = %2
  %16 = load ptr, ptr %5, align 8, !tbaa !13
  %17 = call ptr @OSSL_PARAM_locate_const(ptr noundef %16, ptr noundef @.str.1)
  store ptr %17, ptr %7, align 8, !tbaa !13
  %18 = load ptr, ptr %7, align 8, !tbaa !13
  %19 = icmp ne ptr %18, null
  br i1 %19, label %20, label %34

20:                                               ; preds = %15
  %21 = load ptr, ptr %7, align 8, !tbaa !13
  %22 = call i32 @OSSL_PARAM_get_size_t(ptr noundef %21, ptr noundef %8)
  %23 = icmp ne i32 %22, 0
  br i1 %23, label %25, label %24

24:                                               ; preds = %20
  call void @ERR_new()
  call void @ERR_set_debug(ptr noundef @.str, i32 noundef 162, ptr noundef @__func__.rc4_hmac_md5_set_ctx_params)
  call void (i32, i32, ptr, ...) @ERR_set_error(i32 noundef 57, i32 noundef 103, ptr noundef null)
  store i32 0, ptr %3, align 4
  store i32 1, ptr %9, align 4
  br label %129

25:                                               ; preds = %20
  %26 = load ptr, ptr %6, align 8, !tbaa !7
  %27 = getelementptr inbounds nuw %struct.prov_rc4_hmac_md5_ctx_st, ptr %26, i32 0, i32 0
  %28 = getelementptr inbounds nuw %struct.prov_cipher_ctx_st, ptr %27, i32 0, i32 6
  %29 = load i64, ptr %28, align 8, !tbaa !15
  %30 = load i64, ptr %8, align 8, !tbaa !11
  %31 = icmp ne i64 %29, %30
  br i1 %31, label %32, label %33

32:                                               ; preds = %25
  call void @ERR_new()
  call void @ERR_set_debug(ptr noundef @.str, i32 noundef 166, ptr noundef @__func__.rc4_hmac_md5_set_ctx_params)
  call void (i32, i32, ptr, ...) @ERR_set_error(i32 noundef 57, i32 noundef 105, ptr noundef null)
  store i32 0, ptr %3, align 4
  store i32 1, ptr %9, align 4
  br label %129

33:                                               ; preds = %25
  br label %34

34:                                               ; preds = %33, %15
  %35 = load ptr, ptr %5, align 8, !tbaa !13
  %36 = call ptr @OSSL_PARAM_locate_const(ptr noundef %35, ptr noundef @.str.2)
  store ptr %36, ptr %7, align 8, !tbaa !13
  %37 = load ptr, ptr %7, align 8, !tbaa !13
  %38 = icmp ne ptr %37, null
  br i1 %38, label %39, label %53

39:                                               ; preds = %34
  %40 = load ptr, ptr %7, align 8, !tbaa !13
  %41 = call i32 @OSSL_PARAM_get_size_t(ptr noundef %40, ptr noundef %8)
  %42 = icmp ne i32 %41, 0
  br i1 %42, label %44, label %43

43:                                               ; preds = %39
  call void @ERR_new()
  call void @ERR_set_debug(ptr noundef @.str, i32 noundef 174, ptr noundef @__func__.rc4_hmac_md5_set_ctx_params)
  call void (i32, i32, ptr, ...) @ERR_set_error(i32 noundef 57, i32 noundef 103, ptr noundef null)
  store i32 0, ptr %3, align 4
  store i32 1, ptr %9, align 4
  br label %129

44:                                               ; preds = %39
  %45 = load ptr, ptr %6, align 8, !tbaa !7
  %46 = getelementptr inbounds nuw %struct.prov_rc4_hmac_md5_ctx_st, ptr %45, i32 0, i32 0
  %47 = getelementptr inbounds nuw %struct.prov_cipher_ctx_st, ptr %46, i32 0, i32 7
  %48 = load i64, ptr %47, align 8, !tbaa !22
  %49 = load i64, ptr %8, align 8, !tbaa !11
  %50 = icmp ne i64 %48, %49
  br i1 %50, label %51, label %52

51:                                               ; preds = %44
  call void @ERR_new()
  call void @ERR_set_debug(ptr noundef @.str, i32 noundef 178, ptr noundef @__func__.rc4_hmac_md5_set_ctx_params)
  call void (i32, i32, ptr, ...) @ERR_set_error(i32 noundef 57, i32 noundef 109, ptr noundef null)
  store i32 0, ptr %3, align 4
  store i32 1, ptr %9, align 4
  br label %129

52:                                               ; preds = %44
  br label %53

53:                                               ; preds = %52, %34
  %54 = load ptr, ptr %5, align 8, !tbaa !13
  %55 = call ptr @OSSL_PARAM_locate_const(ptr noundef %54, ptr noundef @.str.5)
  store ptr %55, ptr %7, align 8, !tbaa !13
  %56 = load ptr, ptr %7, align 8, !tbaa !13
  %57 = icmp ne ptr %56, null
  br i1 %57, label %58, label %88

58:                                               ; preds = %53
  %59 = load ptr, ptr %7, align 8, !tbaa !13
  %60 = getelementptr inbounds nuw %struct.ossl_param_st, ptr %59, i32 0, i32 1
  %61 = load i32, ptr %60, align 8, !tbaa !24
  %62 = icmp ne i32 %61, 5
  br i1 %62, label %63, label %64

63:                                               ; preds = %58
  call void @ERR_new()
  call void @ERR_set_debug(ptr noundef @.str, i32 noundef 186, ptr noundef @__func__.rc4_hmac_md5_set_ctx_params)
  call void (i32, i32, ptr, ...) @ERR_set_error(i32 noundef 57, i32 noundef 103, ptr noundef null)
  store i32 0, ptr %3, align 4
  store i32 1, ptr %9, align 4
  br label %129

64:                                               ; preds = %58
  %65 = load ptr, ptr %6, align 8, !tbaa !7
  %66 = getelementptr inbounds nuw %struct.prov_rc4_hmac_md5_ctx_st, ptr %65, i32 0, i32 0
  %67 = getelementptr inbounds nuw %struct.prov_cipher_ctx_st, ptr %66, i32 0, i32 19
  %68 = load ptr, ptr %67, align 8, !tbaa !26
  %69 = getelementptr inbounds nuw %struct.prov_cipher_hw_rc4_hmac_md5_st, ptr %68, i32 0, i32 1
  %70 = load ptr, ptr %69, align 8, !tbaa !27
  %71 = load ptr, ptr %6, align 8, !tbaa !7
  %72 = getelementptr inbounds nuw %struct.prov_rc4_hmac_md5_ctx_st, ptr %71, i32 0, i32 0
  %73 = load ptr, ptr %7, align 8, !tbaa !13
  %74 = getelementptr inbounds nuw %struct.ossl_param_st, ptr %73, i32 0, i32 2
  %75 = load ptr, ptr %74, align 8, !tbaa !30
  %76 = load ptr, ptr %7, align 8, !tbaa !13
  %77 = getelementptr inbounds nuw %struct.ossl_param_st, ptr %76, i32 0, i32 3
  %78 = load i64, ptr %77, align 8, !tbaa !31
  %79 = call i32 %70(ptr noundef %72, ptr noundef %75, i64 noundef %78)
  %80 = sext i32 %79 to i64
  store i64 %80, ptr %8, align 8, !tbaa !11
  %81 = load i64, ptr %8, align 8, !tbaa !11
  %82 = icmp eq i64 %81, 0
  br i1 %82, label %83, label %84

83:                                               ; preds = %64
  call void @ERR_new()
  call void @ERR_set_debug(ptr noundef @.str, i32 noundef 191, ptr noundef @__func__.rc4_hmac_md5_set_ctx_params)
  call void (i32, i32, ptr, ...) @ERR_set_error(i32 noundef 57, i32 noundef 115, ptr noundef null)
  store i32 0, ptr %3, align 4
  store i32 1, ptr %9, align 4
  br label %129

84:                                               ; preds = %64
  %85 = load i64, ptr %8, align 8, !tbaa !11
  %86 = load ptr, ptr %6, align 8, !tbaa !7
  %87 = getelementptr inbounds nuw %struct.prov_rc4_hmac_md5_ctx_st, ptr %86, i32 0, i32 6
  store i64 %85, ptr %87, align 8, !tbaa !23
  br label %88

88:                                               ; preds = %84, %53
  %89 = load ptr, ptr %5, align 8, !tbaa !13
  %90 = call ptr @OSSL_PARAM_locate_const(ptr noundef %89, ptr noundef @.str.6)
  store ptr %90, ptr %7, align 8, !tbaa !13
  %91 = load ptr, ptr %7, align 8, !tbaa !13
  %92 = icmp ne ptr %91, null
  br i1 %92, label %93, label %114

93:                                               ; preds = %88
  %94 = load ptr, ptr %7, align 8, !tbaa !13
  %95 = getelementptr inbounds nuw %struct.ossl_param_st, ptr %94, i32 0, i32 1
  %96 = load i32, ptr %95, align 8, !tbaa !24
  %97 = icmp ne i32 %96, 5
  br i1 %97, label %98, label %99

98:                                               ; preds = %93
  call void @ERR_new()
  call void @ERR_set_debug(ptr noundef @.str, i32 noundef 199, ptr noundef @__func__.rc4_hmac_md5_set_ctx_params)
  call void (i32, i32, ptr, ...) @ERR_set_error(i32 noundef 57, i32 noundef 103, ptr noundef null)
  store i32 0, ptr %3, align 4
  store i32 1, ptr %9, align 4
  br label %129

99:                                               ; preds = %93
  %100 = load ptr, ptr %6, align 8, !tbaa !7
  %101 = getelementptr inbounds nuw %struct.prov_rc4_hmac_md5_ctx_st, ptr %100, i32 0, i32 0
  %102 = getelementptr inbounds nuw %struct.prov_cipher_ctx_st, ptr %101, i32 0, i32 19
  %103 = load ptr, ptr %102, align 8, !tbaa !26
  %104 = getelementptr inbounds nuw %struct.prov_cipher_hw_rc4_hmac_md5_st, ptr %103, i32 0, i32 2
  %105 = load ptr, ptr %104, align 8, !tbaa !32
  %106 = load ptr, ptr %6, align 8, !tbaa !7
  %107 = getelementptr inbounds nuw %struct.prov_rc4_hmac_md5_ctx_st, ptr %106, i32 0, i32 0
  %108 = load ptr, ptr %7, align 8, !tbaa !13
  %109 = getelementptr inbounds nuw %struct.ossl_param_st, ptr %108, i32 0, i32 2
  %110 = load ptr, ptr %109, align 8, !tbaa !30
  %111 = load ptr, ptr %7, align 8, !tbaa !13
  %112 = getelementptr inbounds nuw %struct.ossl_param_st, ptr %111, i32 0, i32 3
  %113 = load i64, ptr %112, align 8, !tbaa !31
  call void %105(ptr noundef %107, ptr noundef %110, i64 noundef %113)
  br label %114

114:                                              ; preds = %99, %88
  %115 = load ptr, ptr %5, align 8, !tbaa !13
  %116 = call ptr @OSSL_PARAM_locate_const(ptr noundef %115, ptr noundef @.str.7)
  store ptr %116, ptr %7, align 8, !tbaa !13
  %117 = load ptr, ptr %7, align 8, !tbaa !13
  %118 = icmp ne ptr %117, null
  br i1 %118, label %119, label %128

119:                                              ; preds = %114
  %120 = load ptr, ptr %7, align 8, !tbaa !13
  %121 = load ptr, ptr %6, align 8, !tbaa !7
  %122 = getelementptr inbounds nuw %struct.prov_rc4_hmac_md5_ctx_st, ptr %121, i32 0, i32 0
  %123 = getelementptr inbounds nuw %struct.prov_cipher_ctx_st, ptr %122, i32 0, i32 12
  %124 = call i32 @OSSL_PARAM_get_uint(ptr noundef %120, ptr noundef %123)
  %125 = icmp ne i32 %124, 0
  br i1 %125, label %127, label %126

126:                                              ; preds = %119
  call void @ERR_new()
  call void @ERR_set_debug(ptr noundef @.str, i32 noundef 207, ptr noundef @__func__.rc4_hmac_md5_set_ctx_params)
  call void (i32, i32, ptr, ...) @ERR_set_error(i32 noundef 57, i32 noundef 103, ptr noundef null)
  store i32 0, ptr %3, align 4
  store i32 1, ptr %9, align 4
  br label %129

127:                                              ; preds = %119
  br label %128

128:                                              ; preds = %127, %114
  store i32 1, ptr %3, align 4
  store i32 1, ptr %9, align 4
  br label %129

129:                                              ; preds = %128, %126, %98, %83, %63, %51, %43, %32, %24, %14
  call void @llvm.lifetime.end.p0(i64 8, ptr %8) #4
  call void @llvm.lifetime.end.p0(i64 8, ptr %7) #4
  call void @llvm.lifetime.end.p0(i64 8, ptr %6) #4
  %130 = load i32, ptr %3, align 4
  ret i32 %130
}