; Function Attrs: nounwind uwtable
define internal range(i32 0, 2) i32 @rc4_hmac_md5_set_ctx_params(ptr noundef %0, ptr noundef %1) #0 {
  %3 = alloca i64, align 8
  call void @llvm.lifetime.start.p0(i64 8, ptr nonnull %3) #4
  %4 = icmp eq ptr %1, null
  br i1 %4, label %ossl_param_is_empty.exit.thread, label %ossl_param_is_empty.exit

ossl_param_is_empty.exit:                         ; preds = %2
  %5 = load ptr, ptr %1, align 8, !tbaa !17
  %.not = icmp eq ptr %5, null
  br i1 %.not, label %ossl_param_is_empty.exit.thread, label %6

6:                                                ; preds = %ossl_param_is_empty.exit
  %7 = tail call ptr @OSSL_PARAM_locate_const(ptr noundef nonnull %1, ptr noundef nonnull @.str.1) #4
  %.not35 = icmp eq ptr %7, null
  br i1 %.not35, label %14, label %8

8:                                                ; preds = %6
  %9 = call i32 @OSSL_PARAM_get_size_t(ptr noundef nonnull %7, ptr noundef nonnull %3) #4
  %.not36 = icmp eq i32 %9, 0
  br i1 %.not36, label %ossl_param_is_empty.exit.thread.sink.split, label %10

10:                                               ; preds = %8
  %11 = getelementptr inbounds nuw i8, ptr %0, i64 72
  %12 = load i64, ptr %11, align 8, !tbaa !3
  %13 = load i64, ptr %3, align 8, !tbaa !19
  %.not37 = icmp eq i64 %12, %13
  br i1 %.not37, label %14, label %ossl_param_is_empty.exit.thread.sink.split

14:                                               ; preds = %10, %6
  %15 = call ptr @OSSL_PARAM_locate_const(ptr noundef nonnull %1, ptr noundef nonnull @.str.2) #4
  %.not38 = icmp eq ptr %15, null
  br i1 %.not38, label %22, label %16

16:                                               ; preds = %14
  %17 = call i32 @OSSL_PARAM_get_size_t(ptr noundef nonnull %15, ptr noundef nonnull %3) #4
  %.not39 = icmp eq i32 %17, 0
  br i1 %.not39, label %ossl_param_is_empty.exit.thread.sink.split, label %18

18:                                               ; preds = %16
  %19 = getelementptr inbounds nuw i8, ptr %0, i64 80
  %20 = load i64, ptr %19, align 8, !tbaa !15
  %21 = load i64, ptr %3, align 8, !tbaa !19
  %.not40 = icmp eq i64 %20, %21
  br i1 %.not40, label %22, label %ossl_param_is_empty.exit.thread.sink.split

22:                                               ; preds = %18, %14
  %23 = call ptr @OSSL_PARAM_locate_const(ptr noundef nonnull %1, ptr noundef nonnull @.str.5) #4
  %.not41 = icmp eq ptr %23, null
  br i1 %.not41, label %41, label %24

24:                                               ; preds = %22
  %25 = getelementptr inbounds nuw i8, ptr %23, i64 8
  %26 = load i32, ptr %25, align 8, !tbaa !20
  %.not42 = icmp eq i32 %26, 5
  br i1 %.not42, label %27, label %ossl_param_is_empty.exit.thread.sink.split

27:                                               ; preds = %24
  %28 = getelementptr inbounds nuw i8, ptr %0, i64 168
  %29 = load ptr, ptr %28, align 8, !tbaa !21
  %30 = getelementptr inbounds nuw i8, ptr %29, i64 24
  %31 = load ptr, ptr %30, align 8, !tbaa !22
  %32 = getelementptr inbounds nuw i8, ptr %23, i64 16
  %33 = load ptr, ptr %32, align 8, !tbaa !25
  %34 = getelementptr inbounds nuw i8, ptr %23, i64 24
  %35 = load i64, ptr %34, align 8, !tbaa !26
  %36 = call i32 %31(ptr noundef %0, ptr noundef %33, i64 noundef %35) #4
  %37 = sext i32 %36 to i64
  store i64 %37, ptr %3, align 8, !tbaa !19
  %38 = icmp eq i32 %36, 0
  br i1 %38, label %ossl_param_is_empty.exit.thread.sink.split, label %39

39:                                               ; preds = %27
  %40 = getelementptr inbounds nuw i8, ptr %0, i64 1512
  store i64 %37, ptr %40, align 8, !tbaa !16
  br label %41

41:                                               ; preds = %39, %22
  %42 = call ptr @OSSL_PARAM_locate_const(ptr noundef nonnull %1, ptr noundef nonnull @.str.6) #4
  %.not43 = icmp eq ptr %42, null
  br i1 %.not43, label %55, label %43

43:                                               ; preds = %41
  %44 = getelementptr inbounds nuw i8, ptr %42, i64 8
  %45 = load i32, ptr %44, align 8, !tbaa !20
  %.not44 = icmp eq i32 %45, 5
  br i1 %.not44, label %46, label %ossl_param_is_empty.exit.thread.sink.split

46:                                               ; preds = %43
  %47 = getelementptr inbounds nuw i8, ptr %0, i64 168
  %48 = load ptr, ptr %47, align 8, !tbaa !21
  %49 = getelementptr inbounds nuw i8, ptr %48, i64 32
  %50 = load ptr, ptr %49, align 8, !tbaa !27
  %51 = getelementptr inbounds nuw i8, ptr %42, i64 16
  %52 = load ptr, ptr %51, align 8, !tbaa !25
  %53 = getelementptr inbounds nuw i8, ptr %42, i64 24
  %54 = load i64, ptr %53, align 8, !tbaa !26
  call void %50(ptr noundef %0, ptr noundef %52, i64 noundef %54) #4
  br label %55

55:                                               ; preds = %46, %41
  %56 = call ptr @OSSL_PARAM_locate_const(ptr noundef nonnull %1, ptr noundef nonnull @.str.7) #4
  %.not45 = icmp eq ptr %56, null
  br i1 %.not45, label %ossl_param_is_empty.exit.thread, label %57

57:                                               ; preds = %55
  %58 = getelementptr inbounds nuw i8, ptr %0, i64 112
  %59 = call i32 @OSSL_PARAM_get_uint(ptr noundef nonnull %56, ptr noundef nonnull %58) #4
  %.not46 = icmp eq i32 %59, 0
  br i1 %.not46, label %ossl_param_is_empty.exit.thread.sink.split, label %ossl_param_is_empty.exit.thread

ossl_param_is_empty.exit.thread.sink.split:       ; preds = %57, %43, %27, %24, %18, %16, %10, %8
  %.sink48 = phi i32 [ 162, %8 ], [ 166, %10 ], [ 174, %16 ], [ 178, %18 ], [ 186, %24 ], [ 191, %27 ], [ 199, %43 ], [ 207, %57 ]
  %.sink = phi i32 [ 103, %8 ], [ 105, %10 ], [ 103, %16 ], [ 109, %18 ], [ 103, %24 ], [ 115, %27 ], [ 103, %43 ], [ 103, %57 ]
  call void @ERR_new() #4
  call void @ERR_set_debug(ptr noundef nonnull @.str, i32 noundef %.sink48, ptr noundef nonnull @__func__.rc4_hmac_md5_set_ctx_params) #4
  call void (i32, i32, ptr, ...) @ERR_set_error(i32 noundef 57, i32 noundef %.sink, ptr noundef null) #4
  br label %ossl_param_is_empty.exit.thread

ossl_param_is_empty.exit.thread:                  ; preds = %ossl_param_is_empty.exit.thread.sink.split, %2, %55, %57, %ossl_param_is_empty.exit
  %.0 = phi i32 [ 1, %ossl_param_is_empty.exit ], [ 1, %57 ], [ 1, %55 ], [ 1, %2 ], [ 0, %ossl_param_is_empty.exit.thread.sink.split ]
  call void @llvm.lifetime.end.p0(i64 8, ptr nonnull %3) #4
  ret i32 %.0
}